; ModuleID = '43/645.c'
source_filename = "43/645.c"
target datalayout = "e-m:e-p270:32:32-p271:32:32-p272:64:64-i64:64-f80:128-n8:16:32:64-S128"
target triple = "x86_64-pc-linux-gnu"

@.str = private unnamed_addr constant [3 x i8] c"%d\00", align 1
@.str.1 = private unnamed_addr constant [7 x i8] c"%d %d\0A\00", align 1

; Function Attrs: noinline nounwind uwtable
define dso_local i32 @main() #0 {
  %1 = alloca i32, align 4
  %2 = alloca i32, align 4
  %3 = alloca i32, align 4
  %4 = alloca i32, align 4
  %5 = alloca i32, align 4
  %6 = alloca i32, align 4
  store i32 0, i32* %1, align 4
  %7 = call i32 (i8*, ...) @__isoc99_scanf(i8* getelementptr inbounds ([3 x i8], [3 x i8]* @.str, i64 0, i64 0), i32* %2)
  %8 = load i32, i32* %2, align 4
  %9 = icmp sge i32 %8, 6
  br i1 %9, label %10, label %99

10:                                               ; preds = %0
  %11 = load i32, i32* %2, align 4
  %12 = icmp sle i32 %11, 10000
  br i1 %12, label %13, label %99

13:                                               ; preds = %10
  %14 = load i32, i32* %2, align 4
  %15 = srem i32 %14, 2
  %16 = icmp eq i32 %15, 0
  br i1 %16, label %17, label %99

17:                                               ; preds = %13
  store i32 2, i32* %3, align 4
  br label %18

18:                                               ; preds = %95, %17
  %19 = load i32, i32* %3, align 4
  %20 = load i32, i32* %2, align 4
  %21 = icmp sle i32 %19, %20
  br i1 %21, label %22, label %98

22:                                               ; preds = %18
  store i32 2, i32* %4, align 4
  br label %23

23:                                               ; preds = %91, %22
  %24 = load i32, i32* %4, align 4
  %25 = load i32, i32* %2, align 4
  %26 = icmp sle i32 %24, %25
  br i1 %26, label %27, label %94

27:                                               ; preds = %23
  %28 = load i32, i32* %3, align 4
  %29 = srem i32 %28, 2
  %30 = icmp ne i32 %29, 0
  br i1 %30, label %31, label %90

31:                                               ; preds = %27
  %32 = load i32, i32* %4, align 4
  %33 = srem i32 %32, 2
  %34 = icmp ne i32 %33, 0
  br i1 %34, label %35, label %90

35:                                               ; preds = %31
  %36 = load i32, i32* %3, align 4
  %37 = load i32, i32* %4, align 4
  %38 = icmp sle i32 %36, %37
  br i1 %38, label %39, label %90

39:                                               ; preds = %35
  %40 = load i32, i32* %2, align 4
  %41 = load i32, i32* %3, align 4
  %42 = load i32, i32* %4, align 4
  %43 = add nsw i32 %41, %42
  %44 = icmp eq i32 %40, %43
  br i1 %44, label %45, label %89

45:                                               ; preds = %39
  store i32 2, i32* %5, align 4
  br label %46

46:                                               ; preds = %57, %45
  %47 = load i32, i32* %5, align 4
  %48 = load i32, i32* %3, align 4
  %49 = icmp slt i32 %47, %48
  br i1 %49, label %50, label %60

50:                                               ; preds = %46
  %51 = load i32, i32* %3, align 4
  %52 = load i32, i32* %5, align 4
  %53 = srem i32 %51, %52
  %54 = icmp eq i32 %53, 0
  br i1 %54, label %55, label %56

55:                                               ; preds = %50
  br label %60

56:                                               ; preds = %50
  br label %57

57:                                               ; preds = %56
  %58 = load i32, i32* %5, align 4
  %59 = add nsw i32 %58, 1
  store i32 %59, i32* %5, align 4
  br label %46

60:                                               ; preds = %55, %46
  %61 = load i32, i32* %5, align 4
  %62 = load i32, i32* %3, align 4
  %63 = icmp eq i32 %61, %62
  br i1 %63, label %64, label %88

64:                                               ; preds = %60
  store i32 2, i32* %6, align 4
  br label %65

65:                                               ; preds = %76, %64
  %66 = load i32, i32* %6, align 4
  %67 = load i32, i32* %4, align 4
  %68 = icmp slt i32 %66, %67
  br i1 %68, label %69, label %79

69:                                               ; preds = %65
  %70 = load i32, i32* %4, align 4
  %71 = load i32, i32* %6, align 4
  %72 = srem i32 %70, %71
  %73 = icmp eq i32 %72, 0
  br i1 %73, label %74, label %75

74:                                               ; preds = %69
  br label %79

75:                                               ; preds = %69
  br label %76

76:                                               ; preds = %75
  %77 = load i32, i32* %6, align 4
  %78 = add nsw i32 %77, 1
  store i32 %78, i32* %6, align 4
  br label %65

79:                                               ; preds = %74, %65
  %80 = load i32, i32* %6, align 4
  %81 = load i32, i32* %4, align 4
  %82 = icmp eq i32 %80, %81
  br i1 %82, label %83, label %87

83:                                               ; preds = %79
  %84 = load i32, i32* %3, align 4
  %85 = load i32, i32* %4, align 4
  %86 = call i32 (i8*, ...) @printf(i8* getelementptr inbounds ([7 x i8], [7 x i8]* @.str.1, i64 0, i64 0), i32 %84, i32 %85)
  br label %87

87:                                               ; preds = %83, %79
  br label %88

88:                                               ; preds = %87, %60
  br label %89

89:                                               ; preds = %88, %39
  br label %90

90:                                               ; preds = %89, %35, %31, %27
  br label %91

91:                                               ; preds = %90
  %92 = load i32, i32* %4, align 4
  %93 = add nsw i32 %92, 1
  store i32 %93, i32* %4, align 4
  br label %23

94:                                               ; preds = %23
  br label %95

95:                                               ; preds = %94
  %96 = load i32, i32* %3, align 4
  %97 = add nsw i32 %96, 1
  store i32 %97, i32* %3, align 4
  br label %18

98:                                               ; preds = %18
  br label %99

99:                                               ; preds = %98, %13, %10, %0
  ret i32 0
}

declare dso_local i32 @__isoc99_scanf(i8*, ...) #1

declare dso_local i32 @printf(i8*, ...) #1


!llvm.module.flags = !{!0}
!llvm.ident = !{!1}

!0 = !{i32 1, !"wchar_size", i32 4}
!1 = !{!"clang version 10.0.0-4ubuntu1 "}
